///////////////////////////////////////////////////////////////////////////////
//
// IAR ANSI C/C++ Compiler V7.30.4.8167/W32 for ARM       20/Dec/2016  09:51:31
// Copyright 1999-2014 IAR Systems AB.
//
//    Cpu mode     =  thumb
//    Endian       =  little
//    Source file  =  
//        E:\Work\区域管理终端\net_gprs_485_20161220_smsch_ws\contiki\core\sys\autostart.c
//    Command line =  
//        E:\Work\区域管理终端\net_gprs_485_20161220_smsch_ws\contiki\core\sys\autostart.c
//        -D USE_STDPERIPH_DRIVER -D STM32F10X_HD -D __ICCARM__ -lC
//        E:\Work\区域管理终端\net_gprs_485_20161220_smsch_ws\iar\Debug\List\
//        -lA
//        E:\Work\区域管理终端\net_gprs_485_20161220_smsch_ws\iar\Debug\List\
//        -o E:\Work\区域管理终端\net_gprs_485_20161220_smsch_ws\iar\Debug\Obj\
//        --debug --endian=little --cpu=Cortex-M3 -e --fpu=None --dlib_config
//        "C:\Program Files\IAR Systems\Embedded Workbench
//        7.0\arm\INC\c\DLib_Config_Full.h" -I
//        E:\Work\区域管理终端\net_gprs_485_20161220_smsch_ws\iar\..\StdPeriph_Driver\inc\
//        -I
//        E:\Work\区域管理终端\net_gprs_485_20161220_smsch_ws\iar\..\contiki\cpu\stm32F103\
//        -I
//        E:\Work\区域管理终端\net_gprs_485_20161220_smsch_ws\iar\..\contiki\platform\stm32f103\
//        -I
//        E:\Work\区域管理终端\net_gprs_485_20161220_smsch_ws\iar\..\xprintf\
//        -I
//        E:\Work\区域管理终端\net_gprs_485_20161220_smsch_ws\iar\..\contiki\core\
//        -I
//        E:\Work\区域管理终端\net_gprs_485_20161220_smsch_ws\iar\..\contiki\core\sys\
//        -I
//        E:\Work\区域管理终端\net_gprs_485_20161220_smsch_ws\iar\..\contiki\core\lib\
//        -I E:\Work\区域管理终端\net_gprs_485_20161220_smsch_ws\iar\..\CMSIS\
//        -I
//        E:\Work\区域管理终端\net_gprs_485_20161220_smsch_ws\iar\..\contiki\core\net\
//        -I
//        E:\Work\区域管理终端\net_gprs_485_20161220_smsch_ws\iar\..\contiki\apps\shell\
//        -I
//        E:\Work\区域管理终端\net_gprs_485_20161220_smsch_ws\iar\..\contiki\cpu\stm32F103\si4438\
//        -I
//        E:\Work\区域管理终端\net_gprs_485_20161220_smsch_ws\iar\..\contiki\cpu\stm32F103\si4438\radiolib\
//        -I
//        E:\Work\区域管理终端\net_gprs_485_20161220_smsch_ws\iar\..\utility\
//        -I E:\Work\区域管理终端\net_gprs_485_20161220_smsch_ws\iar\..\hwgg\
//        -I
//        E:\Work\区域管理终端\net_gprs_485_20161220_smsch_ws\iar\..\contiki\core\net\ip64\
//        -I
//        E:\Work\区域管理终端\net_gprs_485_20161220_smsch_ws\iar\..\contiki\core\net\ip64-addr\
//        -I E:\Work\区域管理终端\net_gprs_485_20161220_smsch_ws\iar\..\grps\
//        -I E:\Work\区域管理终端\net_gprs_485_20161220_smsch_ws\iar\..\app485\
//        -Oh -I "C:\Program Files\IAR Systems\Embedded Workbench
//        7.0\arm\CMSIS\Include\"
//    List file    =  
//        E:\Work\区域管理终端\net_gprs_485_20161220_smsch_ws\iar\Debug\List\autostart.s
//
///////////////////////////////////////////////////////////////////////////////

        RTMODEL "__SystemLibrary", "DLib"
        AAPCS BASE,INTERWORK
        PRESERVE8
        REQUIRE8

        #define SHT_PROGBITS 0x1

        EXTERN process_exit
        EXTERN process_start

        PUBLIC autostart_exit
        PUBLIC autostart_start
        
          CFI Names cfiNames0
          CFI StackFrame CFA R13 DATA
          CFI Resource R0:32, R1:32, R2:32, R3:32, R4:32, R5:32, R6:32, R7:32
          CFI Resource R8:32, R9:32, R10:32, R11:32, R12:32, R13:32, R14:32
          CFI EndNames cfiNames0
        
          CFI Common cfiCommon0 Using cfiNames0
          CFI CodeAlign 2
          CFI DataAlign 4
          CFI ReturnAddress R14 CODE
          CFI CFA R13+0
          CFI R0 Undefined
          CFI R1 Undefined
          CFI R2 Undefined
          CFI R3 Undefined
          CFI R4 SameValue
          CFI R5 SameValue
          CFI R6 SameValue
          CFI R7 SameValue
          CFI R8 SameValue
          CFI R9 SameValue
          CFI R10 SameValue
          CFI R11 SameValue
          CFI R12 Undefined
          CFI R14 SameValue
          CFI EndCommon cfiCommon0
        
// E:\Work\区域管理终端\net_gprs_485_20161220_smsch_ws\contiki\core\sys\autostart.c
//    1 /*
//    2  * Copyright (c) 2005, Swedish Institute of Computer Science.
//    3  * All rights reserved.
//    4  *
//    5  * Redistribution and use in source and binary forms, with or without
//    6  * modification, are permitted provided that the following conditions
//    7  * are met:
//    8  * 1. Redistributions of source code must retain the above copyright
//    9  *    notice, this list of conditions and the following disclaimer.
//   10  * 2. Redistributions in binary form must reproduce the above copyright
//   11  *    notice, this list of conditions and the following disclaimer in the
//   12  *    documentation and/or other materials provided with the distribution.
//   13  * 3. Neither the name of the Institute nor the names of its contributors
//   14  *    may be used to endorse or promote products derived from this software
//   15  *    without specific prior written permission.
//   16  *
//   17  * THIS SOFTWARE IS PROVIDED BY THE INSTITUTE AND CONTRIBUTORS ``AS IS'' AND
//   18  * ANY EXPRESS OR IMPLIED WARRANTIES, INCLUDING, BUT NOT LIMITED TO, THE
//   19  * IMPLIED WARRANTIES OF MERCHANTABILITY AND FITNESS FOR A PARTICULAR PURPOSE
//   20  * ARE DISCLAIMED.  IN NO EVENT SHALL THE INSTITUTE OR CONTRIBUTORS BE LIABLE
//   21  * FOR ANY DIRECT, INDIRECT, INCIDENTAL, SPECIAL, EXEMPLARY, OR CONSEQUENTIAL
//   22  * DAMAGES (INCLUDING, BUT NOT LIMITED TO, PROCUREMENT OF SUBSTITUTE GOODS
//   23  * OR SERVICES; LOSS OF USE, DATA, OR PROFITS; OR BUSINESS INTERRUPTION)
//   24  * HOWEVER CAUSED AND ON ANY THEORY OF LIABILITY, WHETHER IN CONTRACT, STRICT
//   25  * LIABILITY, OR TORT (INCLUDING NEGLIGENCE OR OTHERWISE) ARISING IN ANY WAY
//   26  * OUT OF THE USE OF THIS SOFTWARE, EVEN IF ADVISED OF THE POSSIBILITY OF
//   27  * SUCH DAMAGE.
//   28  *
//   29  * This file is part of the Contiki operating system.
//   30  *
//   31  */
//   32 
//   33 /**
//   34  * \file
//   35  *         Implementation of module for automatically starting and exiting a list of processes.
//   36  * \author
//   37  *         Adam Dunkels <adam@sics.se>
//   38  */
//   39 
//   40 #include "sys/autostart.h"
//   41 
//   42 #define DEBUG 0
//   43 #if DEBUG
//   44 #include <stdio.h>
//   45 #define PRINTF(...) printf(__VA_ARGS__)
//   46 #else
//   47 #define PRINTF(...)
//   48 #endif
//   49 
//   50 /*---------------------------------------------------------------------------*/

        SECTION `.text`:CODE:NOROOT(1)
          CFI Block cfiBlock0 Using cfiCommon0
          CFI Function autostart_start
        THUMB
//   51 void
//   52 autostart_start(struct process * const processes[])
//   53 {
autostart_start:
        PUSH     {R4,LR}
          CFI R14 Frame(CFA, -4)
          CFI R4 Frame(CFA, -8)
          CFI CFA R13+8
        MOV      R4,R0
//   54   int i;
//   55   
//   56   for(i = 0; processes[i] != NULL; ++i) {
        B.N      ??autostart_start_0
//   57     process_start(processes[i], NULL);
??autostart_start_1:
        LDR      R0,[R4], #+4
        MOVS     R1,#+0
          CFI FunCall process_start
        BL       process_start
//   58     PRINTF("autostart_start: starting process '%s'\n", processes[i]->name);
//   59   }
??autostart_start_0:
        LDR      R0,[R4, #+0]
        CMP      R0,#+0
        BNE.N    ??autostart_start_1
//   60 }
        POP      {R4,PC}          ;; return
          CFI EndBlock cfiBlock0
//   61 /*---------------------------------------------------------------------------*/

        SECTION `.text`:CODE:NOROOT(1)
          CFI Block cfiBlock1 Using cfiCommon0
          CFI Function autostart_exit
        THUMB
//   62 void
//   63 autostart_exit(struct process * const processes[])
//   64 {
autostart_exit:
        PUSH     {R4,LR}
          CFI R14 Frame(CFA, -4)
          CFI R4 Frame(CFA, -8)
          CFI CFA R13+8
        MOV      R4,R0
//   65   int i;
//   66   
//   67   for(i = 0; processes[i] != NULL; ++i) {
        B.N      ??autostart_exit_0
//   68     process_exit(processes[i]);
??autostart_exit_1:
        LDR      R0,[R4], #+4
          CFI FunCall process_exit
        BL       process_exit
//   69     PRINTF("autostart_exit: stopping process '%s'\n", processes[i]->name);
//   70   }
??autostart_exit_0:
        LDR      R0,[R4, #+0]
        CMP      R0,#+0
        BNE.N    ??autostart_exit_1
//   71 }
        POP      {R4,PC}          ;; return
          CFI EndBlock cfiBlock1

        SECTION `.iar_vfe_header`:DATA:NOALLOC:NOROOT(2)
        SECTION_TYPE SHT_PROGBITS, 0
        DATA
        DC32 0

        SECTION __DLIB_PERTHREAD:DATA:REORDER:NOROOT(0)
        SECTION_TYPE SHT_PROGBITS, 0

        SECTION __DLIB_PERTHREAD_init:DATA:REORDER:NOROOT(0)
        SECTION_TYPE SHT_PROGBITS, 0

        END
//   72 /*---------------------------------------------------------------------------*/
// 
// 46 bytes in section .text
// 
// 46 bytes of CODE memory
//
//Errors: none
//Warnings: 1
